; ModuleID = '5/1160.c'
source_filename = "5/1160.c"
target datalayout = "e-m:e-p270:32:32-p271:32:32-p272:64:64-i64:64-f80:128-n8:16:32:64-S128"
target triple = "x86_64-pc-linux-gnu"

@.str = private unnamed_addr constant [4 x i8] c"%lf\00", align 1
@.str.1 = private unnamed_addr constant [3 x i8] c"%s\00", align 1
@.str.2 = private unnamed_addr constant [6 x i8] c"error\00", align 1
@.str.3 = private unnamed_addr constant [4 x i8] c"yes\00", align 1
@.str.4 = private unnamed_addr constant [3 x i8] c"no\00", align 1

; Function Attrs: noinline nounwind uwtable
define dso_local i32 @main() #0 {
  %1 = alloca i32, align 4
  %2 = alloca i32, align 4
  %3 = alloca i32, align 4
  %4 = alloca i32, align 4
  %5 = alloca [2 x [255 x i8]], align 16
  %6 = alloca double, align 8
  %7 = alloca double, align 8
  %8 = alloca double, align 8
  store i32 0, i32* %1, align 4
  store i32 1, i32* %4, align 4
  store double 0.000000e+00, double* %8, align 8
  %9 = call i32 (i8*, ...) @__isoc99_scanf(i8* getelementptr inbounds ([4 x i8], [4 x i8]* @.str, i64 0, i64 0), double* %6)
  store i32 0, i32* %2, align 4
  br label %10

10:                                               ; preds = %19, %0
  %11 = load i32, i32* %2, align 4
  %12 = icmp slt i32 %11, 2
  br i1 %12, label %13, label %22

13:                                               ; preds = %10
  %14 = load i32, i32* %2, align 4
  %15 = sext i32 %14 to i64
  %16 = getelementptr inbounds [2 x [255 x i8]], [2 x [255 x i8]]* %5, i64 0, i64 %15
  %17 = getelementptr inbounds [255 x i8], [255 x i8]* %16, i64 0, i64 0
  %18 = call i32 (i8*, ...) @__isoc99_scanf(i8* getelementptr inbounds ([3 x i8], [3 x i8]* @.str.1, i64 0, i64 0), i8* %17)
  br label %19

19:                                               ; preds = %13
  %20 = load i32, i32* %2, align 4
  %21 = add nsw i32 %20, 1
  store i32 %21, i32* %2, align 4
  br label %10

22:                                               ; preds = %10
  %23 = getelementptr inbounds [2 x [255 x i8]], [2 x [255 x i8]]* %5, i64 0, i64 0
  %24 = getelementptr inbounds [255 x i8], [255 x i8]* %23, i64 0, i64 0
  %25 = call i64 @strlen(i8* %24) #3
  %26 = uitofp i64 %25 to double
  store double %26, double* %7, align 8
  store i32 0, i32* %3, align 4
  br label %27

27:                                               ; preds = %116, %22
  %28 = load i32, i32* %3, align 4
  %29 = sitofp i32 %28 to double
  %30 = load double, double* %7, align 8
  %31 = fcmp olt double %29, %30
  br i1 %31, label %32, label %119

32:                                               ; preds = %27
  %33 = getelementptr inbounds [2 x [255 x i8]], [2 x [255 x i8]]* %5, i64 0, i64 0
  %34 = load i32, i32* %3, align 4
  %35 = sext i32 %34 to i64
  %36 = getelementptr inbounds [255 x i8], [255 x i8]* %33, i64 0, i64 %35
  %37 = load i8, i8* %36, align 1
  %38 = sext i8 %37 to i32
  %39 = icmp ne i32 %38, 65
  br i1 %39, label %40, label %64

40:                                               ; preds = %32
  %41 = getelementptr inbounds [2 x [255 x i8]], [2 x [255 x i8]]* %5, i64 0, i64 0
  %42 = load i32, i32* %3, align 4
  %43 = sext i32 %42 to i64
  %44 = getelementptr inbounds [255 x i8], [255 x i8]* %41, i64 0, i64 %43
  %45 = load i8, i8* %44, align 1
  %46 = sext i8 %45 to i32
  %47 = icmp ne i32 %46, 67
  br i1 %47, label %48, label %64

48:                                               ; preds = %40
  %49 = getelementptr inbounds [2 x [255 x i8]], [2 x [255 x i8]]* %5, i64 0, i64 0
  %50 = load i32, i32* %3, align 4
  %51 = sext i32 %50 to i64
  %52 = getelementptr inbounds [255 x i8], [255 x i8]* %49, i64 0, i64 %51
  %53 = load i8, i8* %52, align 1
  %54 = sext i8 %53 to i32
  %55 = icmp ne i32 %54, 84
  br i1 %55, label %56, label %64

56:                                               ; preds = %48
  %57 = getelementptr inbounds [2 x [255 x i8]], [2 x [255 x i8]]* %5, i64 0, i64 0
  %58 = load i32, i32* %3, align 4
  %59 = sext i32 %58 to i64
  %60 = getelementptr inbounds [255 x i8], [255 x i8]* %57, i64 0, i64 %59
  %61 = load i8, i8* %60, align 1
  %62 = sext i8 %61 to i32
  %63 = icmp ne i32 %62, 71
  br i1 %63, label %96, label %64

64:                                               ; preds = %56, %48, %40, %32
  %65 = getelementptr inbounds [2 x [255 x i8]], [2 x [255 x i8]]* %5, i64 0, i64 1
  %66 = load i32, i32* %3, align 4
  %67 = sext i32 %66 to i64
  %68 = getelementptr inbounds [255 x i8], [255 x i8]* %65, i64 0, i64 %67
  %69 = load i8, i8* %68, align 1
  %70 = sext i8 %69 to i32
  %71 = icmp ne i32 %70, 65
  br i1 %71, label %72, label %98

72:                                               ; preds = %64
  %73 = getelementptr inbounds [2 x [255 x i8]], [2 x [255 x i8]]* %5, i64 0, i64 1
  %74 = load i32, i32* %3, align 4
  %75 = sext i32 %74 to i64
  %76 = getelementptr inbounds [255 x i8], [255 x i8]* %73, i64 0, i64 %75
  %77 = load i8, i8* %76, align 1
  %78 = sext i8 %77 to i32
  %79 = icmp ne i32 %78, 84
  br i1 %79, label %80, label %98

80:                                               ; preds = %72
  %81 = getelementptr inbounds [2 x [255 x i8]], [2 x [255 x i8]]* %5, i64 0, i64 1
  %82 = load i32, i32* %3, align 4
  %83 = sext i32 %82 to i64
  %84 = getelementptr inbounds [255 x i8], [255 x i8]* %81, i64 0, i64 %83
  %85 = load i8, i8* %84, align 1
  %86 = sext i8 %85 to i32
  %87 = icmp ne i32 %86, 67
  br i1 %87, label %88, label %98

88:                                               ; preds = %80
  %89 = getelementptr inbounds [2 x [255 x i8]], [2 x [255 x i8]]* %5, i64 0, i64 1
  %90 = load i32, i32* %3, align 4
  %91 = sext i32 %90 to i64
  %92 = getelementptr inbounds [255 x i8], [255 x i8]* %89, i64 0, i64 %91
  %93 = load i8, i8* %92, align 1
  %94 = sext i8 %93 to i32
  %95 = icmp ne i32 %94, 71
  br i1 %95, label %96, label %98

96:                                               ; preds = %88, %56
  %97 = call i32 (i8*, ...) @printf(i8* getelementptr inbounds ([6 x i8], [6 x i8]* @.str.2, i64 0, i64 0))
  store i32 0, i32* %4, align 4
  br label %119

98:                                               ; preds = %88, %80, %72, %64
  %99 = getelementptr inbounds [2 x [255 x i8]], [2 x [255 x i8]]* %5, i64 0, i64 0
  %100 = load i32, i32* %3, align 4
  %101 = sext i32 %100 to i64
  %102 = getelementptr inbounds [255 x i8], [255 x i8]* %99, i64 0, i64 %101
  %103 = load i8, i8* %102, align 1
  %104 = sext i8 %103 to i32
  %105 = getelementptr inbounds [2 x [255 x i8]], [2 x [255 x i8]]* %5, i64 0, i64 1
  %106 = load i32, i32* %3, align 4
  %107 = sext i32 %106 to i64
  %108 = getelementptr inbounds [255 x i8], [255 x i8]* %105, i64 0, i64 %107
  %109 = load i8, i8* %108, align 1
  %110 = sext i8 %109 to i32
  %111 = icmp eq i32 %104, %110
  br i1 %111, label %112, label %115

112:                                              ; preds = %98
  %113 = load double, double* %8, align 8
  %114 = fadd double %113, 1.000000e+00
  store double %114, double* %8, align 8
  br label %115

115:                                              ; preds = %112, %98
  br label %116

116:                                              ; preds = %115
  %117 = load i32, i32* %3, align 4
  %118 = add nsw i32 %117, 1
  store i32 %118, i32* %3, align 4
  br label %27

119:                                              ; preds = %96, %27
  %120 = load i32, i32* %4, align 4
  %121 = icmp eq i32 %120, 1
  br i1 %121, label %122, label %133

122:                                              ; preds = %119
  %123 = load double, double* %8, align 8
  %124 = load double, double* %7, align 8
  %125 = fdiv double %123, %124
  %126 = load double, double* %6, align 8
  %127 = fcmp ogt double %125, %126
  br i1 %127, label %128, label %130

128:                                              ; preds = %122
  %129 = call i32 (i8*, ...) @printf(i8* getelementptr inbounds ([4 x i8], [4 x i8]* @.str.3, i64 0, i64 0))
  br label %132

130:                                              ; preds = %122
  %131 = call i32 (i8*, ...) @printf(i8* getelementptr inbounds ([3 x i8], [3 x i8]* @.str.4, i64 0, i64 0))
  br label %132

132:                                              ; preds = %130, %128
  br label %133

133:                                              ; preds = %132, %119
  ret i32 0
}

declare dso_local i32 @__isoc99_scanf(i8*, ...) #1

; Function Attrs: nounwind readonly
declare dso_local i64 @strlen(i8*) #2

declare dso_local i32 @printf(i8*, ...) #1


!llvm.module.flags = !{!0}
!llvm.ident = !{!1}

!0 = !{i32 1, !"wchar_size", i32 4}
!1 = !{!"clang version 10.0.0-4ubuntu1 "}
