; ModuleID = 'source-C-CXX/4/1160.c'
source_filename = "source-C-CXX/4/1160.c"
target datalayout = "e-m:e-p270:32:32-p271:32:32-p272:64:64-i64:64-f80:128-n8:16:32:64-S128"
target triple = "x86_64-pc-linux-gnu"

@.str = private unnamed_addr constant [4 x i8] c"%lf\00", align 1
@.str.1 = private unnamed_addr constant [3 x i8] c"%s\00", align 1
@.str.2 = private unnamed_addr constant [6 x i8] c"error\00", align 1
@.str.3 = private unnamed_addr constant [4 x i8] c"yes\00", align 1
@.str.4 = private unnamed_addr constant [3 x i8] c"no\00", align 1

; Function Attrs: nofree nounwind sspstrong uwtable
define dso_local i32 @main() local_unnamed_addr #0 {
  %1 = alloca [2 x [255 x i8]], align 16
  %2 = alloca double, align 8
  %3 = getelementptr inbounds [2 x [255 x i8]], [2 x [255 x i8]]* %1, i64 0, i64 0, i64 0
  call void @llvm.lifetime.start.p0i8(i64 510, i8* nonnull %3) #4
  %4 = bitcast double* %2 to i8*
  call void @llvm.lifetime.start.p0i8(i64 8, i8* nonnull %4) #4
  %5 = call i32 (i8*, ...) @__isoc99_scanf(i8* getelementptr inbounds ([4 x i8], [4 x i8]* @.str, i64 0, i64 0), double* nonnull %2)
  %6 = call i32 (i8*, ...) @__isoc99_scanf(i8* getelementptr inbounds ([3 x i8], [3 x i8]* @.str.1, i64 0, i64 0), i8* nonnull %3)
  %7 = getelementptr inbounds [2 x [255 x i8]], [2 x [255 x i8]]* %1, i64 0, i64 1, i64 0
  %8 = call i32 (i8*, ...) @__isoc99_scanf(i8* getelementptr inbounds ([3 x i8], [3 x i8]* @.str.1, i64 0, i64 0), i8* nonnull %7)
  %9 = call i64 @strlen(i8* noundef nonnull %3) #5
  %10 = uitofp i64 %9 to double
  %11 = icmp eq i64 %9, 0
  br i1 %11, label %28, label %12

12:                                               ; preds = %0, %20
  %13 = phi i64 [ %24, %20 ], [ 0, %0 ]
  %14 = phi double [ %23, %20 ], [ 0.000000e+00, %0 ]
  %15 = getelementptr inbounds [2 x [255 x i8]], [2 x [255 x i8]]* %1, i64 0, i64 0, i64 %13
  %16 = load i8, i8* %15, align 1, !tbaa !5
  switch i8 %16, label %34 [
    i8 65, label %17
    i8 67, label %17
    i8 84, label %17
    i8 71, label %17
  ]

17:                                               ; preds = %12, %12, %12, %12
  %18 = getelementptr inbounds [2 x [255 x i8]], [2 x [255 x i8]]* %1, i64 0, i64 1, i64 %13
  %19 = load i8, i8* %18, align 1, !tbaa !5
  switch i8 %19, label %34 [
    i8 65, label %20
    i8 84, label %20
    i8 67, label %20
    i8 71, label %20
  ]

20:                                               ; preds = %17, %17, %17, %17
  %21 = icmp eq i8 %16, %19
  %22 = fadd double %14, 1.000000e+00
  %23 = select i1 %21, double %22, double %14
  %24 = add nuw i64 %13, 1
  %25 = trunc i64 %24 to i32
  %26 = sitofp i32 %25 to double
  %27 = fcmp olt double %26, %10
  br i1 %27, label %12, label %28, !llvm.loop !8

28:                                               ; preds = %20, %0
  %29 = phi double [ 0.000000e+00, %0 ], [ %23, %20 ]
  %30 = fdiv double %29, %10
  %31 = load double, double* %2, align 8, !tbaa !10
  %32 = fcmp ogt double %30, %31
  %33 = select i1 %32, i8* getelementptr inbounds ([4 x i8], [4 x i8]* @.str.3, i64 0, i64 0), i8* getelementptr inbounds ([3 x i8], [3 x i8]* @.str.4, i64 0, i64 0)
  br label %34

34:                                               ; preds = %12, %17, %28
  %35 = phi i8* [ %33, %28 ], [ getelementptr inbounds ([6 x i8], [6 x i8]* @.str.2, i64 0, i64 0), %17 ], [ getelementptr inbounds ([6 x i8], [6 x i8]* @.str.2, i64 0, i64 0), %12 ]
  %36 = call i32 (i8*, ...) @printf(i8* nonnull dereferenceable(1) %35)
  call void @llvm.lifetime.end.p0i8(i64 8, i8* nonnull %4) #4
  call void @llvm.lifetime.end.p0i8(i64 510, i8* nonnull %3) #4
  ret i32 0
}

; Function Attrs: argmemonly mustprogress nofree nosync nounwind willreturn
declare void @llvm.lifetime.start.p0i8(i64 immarg, i8* nocapture) #1

; Function Attrs: nofree nounwind
declare noundef i32 @__isoc99_scanf(i8* nocapture noundef readonly, ...) local_unnamed_addr #2

; Function Attrs: argmemonly mustprogress nofree nounwind readonly willreturn
declare i64 @strlen(i8* nocapture) local_unnamed_addr #3

; Function Attrs: nofree nounwind
declare noundef i32 @printf(i8* nocapture noundef readonly, ...) local_unnamed_addr #2

; Function Attrs: argmemonly mustprogress nofree nosync nounwind willreturn
declare void @llvm.lifetime.end.p0i8(i64 immarg, i8* nocapture) #1


!llvm.module.flags = !{!0, !1, !2, !3}
!llvm.ident = !{!4}

!0 = !{i32 1, !"wchar_size", i32 4}
!1 = !{i32 7, !"PIC Level", i32 2}
!2 = !{i32 7, !"PIE Level", i32 2}
!3 = !{i32 7, !"uwtable", i32 1}
!4 = !{!"clang version 13.0.0"}
!5 = !{!6, !6, i64 0}
!6 = !{!"omnipotent char", !7, i64 0}
!7 = !{!"Simple C/C++ TBAA"}
!8 = distinct !{!8, !9}
!9 = !{!"llvm.loop.mustprogress"}
!10 = !{!11, !11, i64 0}
!11 = !{!"double", !6, i64 0}
